target datalayout = "e-m:e-p270:32:32-p271:32:32-p272:64:64-i64:64-i128:128-f80:128-n8:16:32:64-S128"
target triple = "x86_64-pc-linux-gnu"

@.str.25 = private unnamed_addr constant [122 x i8] c"generated/home/dtcxzyw/WorkSpace/Projects/compilers/llvm-opt-benchmark/bench/lief/bench_build/mbed_src/library/x509_crt.c\00", align 1

; Function Attrs: inlinehint nounwind uwtable
define internal i32 @mbedtls_error_add(i32 noundef %0, i32 noundef %1, ptr noundef %2, i32 noundef %3) #9 {
  %5 = alloca i32, align 4
  %6 = alloca i32, align 4
  %7 = alloca ptr, align 8
  %8 = alloca i32, align 4
  store i32 %0, ptr %5, align 4, !tbaa !12
  store i32 %1, ptr %6, align 4, !tbaa !12
  store ptr %2, ptr %7, align 8, !tbaa !8
  store i32 %3, ptr %8, align 4, !tbaa !12
  %9 = load i32, ptr %5, align 4, !tbaa !12
  %10 = load i32, ptr %6, align 4, !tbaa !12
  %11 = add nsw i32 %9, %10
  ret i32 %11
}

; Function Attrs: nounwind uwtable
define internal i32 @x509_get_basic_constraints(ptr noundef %0, ptr noundef %1, ptr noundef %2, ptr noundef %3) #0 {
  %5 = alloca i32, align 4
  %6 = alloca ptr, align 8
  %7 = alloca ptr, align 8
  %8 = alloca ptr, align 8
  %9 = alloca ptr, align 8
  %10 = alloca i32, align 4
  %11 = alloca i64, align 8
  %12 = alloca i32, align 4
  store ptr %0, ptr %6, align 8, !tbaa !62
  store ptr %1, ptr %7, align 8, !tbaa !8
  store ptr %2, ptr %8, align 8, !tbaa !93
  store ptr %3, ptr %9, align 8, !tbaa !93
  call void @llvm.lifetime.start.p0(i64 4, ptr %10) #10
  store i32 -110, ptr %10, align 4, !tbaa !12
  call void @llvm.lifetime.start.p0(i64 8, ptr %11) #10
  %13 = load ptr, ptr %8, align 8, !tbaa !93
  store i32 0, ptr %13, align 4, !tbaa !12
  %14 = load ptr, ptr %9, align 8, !tbaa !93
  store i32 0, ptr %14, align 4, !tbaa !12
  %15 = load ptr, ptr %6, align 8, !tbaa !62
  %16 = load ptr, ptr %7, align 8, !tbaa !8
  %17 = call i32 @mbedtls_asn1_get_tag(ptr noundef %15, ptr noundef %16, ptr noundef %11, i32 noundef 48)
  store i32 %17, ptr %10, align 4, !tbaa !12
  %18 = icmp ne i32 %17, 0
  br i1 %18, label %19, label %22

19:                                               ; preds = %4
  %20 = load i32, ptr %10, align 4, !tbaa !12
  %21 = call i32 @mbedtls_error_add(i32 noundef -9472, i32 noundef %20, ptr noundef @.str.25, i32 noundef 512)
  store i32 %21, ptr %5, align 4
  store i32 1, ptr %12, align 4
  br label %87

22:                                               ; preds = %4
  %23 = load ptr, ptr %6, align 8, !tbaa !62
  %24 = load ptr, ptr %23, align 8, !tbaa !8
  %25 = load ptr, ptr %7, align 8, !tbaa !8
  %26 = icmp eq ptr %24, %25
  br i1 %26, label %27, label %28

27:                                               ; preds = %22
  store i32 0, ptr %5, align 4
  store i32 1, ptr %12, align 4
  br label %87

28:                                               ; preds = %22
  %29 = load ptr, ptr %6, align 8, !tbaa !62
  %30 = load ptr, ptr %7, align 8, !tbaa !8
  %31 = load ptr, ptr %8, align 8, !tbaa !93
  %32 = call i32 @mbedtls_asn1_get_bool(ptr noundef %29, ptr noundef %30, ptr noundef %31)
  store i32 %32, ptr %10, align 4, !tbaa !12
  %33 = icmp ne i32 %32, 0
  br i1 %33, label %34, label %55

34:                                               ; preds = %28
  %35 = load i32, ptr %10, align 4, !tbaa !12
  %36 = icmp eq i32 %35, -98
  br i1 %36, label %37, label %42

37:                                               ; preds = %34
  %38 = load ptr, ptr %6, align 8, !tbaa !62
  %39 = load ptr, ptr %7, align 8, !tbaa !8
  %40 = load ptr, ptr %8, align 8, !tbaa !93
  %41 = call i32 @mbedtls_asn1_get_int(ptr noundef %38, ptr noundef %39, ptr noundef %40)
  store i32 %41, ptr %10, align 4, !tbaa !12
  br label %42

42:                                               ; preds = %37, %34
  %43 = load i32, ptr %10, align 4, !tbaa !12
  %44 = icmp ne i32 %43, 0
  br i1 %44, label %45, label %48

45:                                               ; preds = %42
  %46 = load i32, ptr %10, align 4, !tbaa !12
  %47 = call i32 @mbedtls_error_add(i32 noundef -9472, i32 noundef %46, ptr noundef @.str.25, i32 noundef 525)
  store i32 %47, ptr %5, align 4
  store i32 1, ptr %12, align 4
  br label %87

48:                                               ; preds = %42
  %49 = load ptr, ptr %8, align 8, !tbaa !93
  %50 = load i32, ptr %49, align 4, !tbaa !12
  %51 = icmp ne i32 %50, 0
  br i1 %51, label %52, label %54

52:                                               ; preds = %48
  %53 = load ptr, ptr %8, align 8, !tbaa !93
  store i32 1, ptr %53, align 4, !tbaa !12
  br label %54

54:                                               ; preds = %52, %48
  br label %55

55:                                               ; preds = %54, %28
  %56 = load ptr, ptr %6, align 8, !tbaa !62
  %57 = load ptr, ptr %56, align 8, !tbaa !8
  %58 = load ptr, ptr %7, align 8, !tbaa !8
  %59 = icmp eq ptr %57, %58
  br i1 %59, label %60, label %61

60:                                               ; preds = %55
  store i32 0, ptr %5, align 4
  store i32 1, ptr %12, align 4
  br label %87

61:                                               ; preds = %55
  %62 = load ptr, ptr %6, align 8, !tbaa !62
  %63 = load ptr, ptr %7, align 8, !tbaa !8
  %64 = load ptr, ptr %9, align 8, !tbaa !93
  %65 = call i32 @mbedtls_asn1_get_int(ptr noundef %62, ptr noundef %63, ptr noundef %64)
  store i32 %65, ptr %10, align 4, !tbaa !12
  %66 = icmp ne i32 %65, 0
  br i1 %66, label %67, label %70

67:                                               ; preds = %61
  %68 = load i32, ptr %10, align 4, !tbaa !12
  %69 = call i32 @mbedtls_error_add(i32 noundef -9472, i32 noundef %68, ptr noundef @.str.25, i32 noundef 538)
  store i32 %69, ptr %5, align 4
  store i32 1, ptr %12, align 4
  br label %87

70:                                               ; preds = %61
  %71 = load ptr, ptr %6, align 8, !tbaa !62
  %72 = load ptr, ptr %71, align 8, !tbaa !8
  %73 = load ptr, ptr %7, align 8, !tbaa !8
  %74 = icmp ne ptr %72, %73
  br i1 %74, label %75, label %77

75:                                               ; preds = %70
  %76 = call i32 @mbedtls_error_add(i32 noundef -9472, i32 noundef -102, ptr noundef @.str.25, i32 noundef 543)
  store i32 %76, ptr %5, align 4
  store i32 1, ptr %12, align 4
  br label %87

77:                                               ; preds = %70
  %78 = load ptr, ptr %9, align 8, !tbaa !93
  %79 = load i32, ptr %78, align 4, !tbaa !12
  %80 = icmp eq i32 %79, 2147483647
  br i1 %80, label %81, label %83

81:                                               ; preds = %77
  %82 = call i32 @mbedtls_error_add(i32 noundef -9472, i32 noundef -100, ptr noundef @.str.25, i32 noundef 550)
  store i32 %82, ptr %5, align 4
  store i32 1, ptr %12, align 4
  br label %87

83:                                               ; preds = %77
  %84 = load ptr, ptr %9, align 8, !tbaa !93
  %85 = load i32, ptr %84, align 4, !tbaa !12
  %86 = add nsw i32 %85, 1
  store i32 %86, ptr %84, align 4, !tbaa !12
  store i32 0, ptr %5, align 4
  store i32 1, ptr %12, align 4
  br label %87

87:                                               ; preds = %83, %81, %75, %67, %60, %45, %27, %19
  call void @llvm.lifetime.end.p0(i64 8, ptr %11) #10
  call void @llvm.lifetime.end.p0(i64 4, ptr %10) #10
  %88 = load i32, ptr %5, align 4
  ret i32 %88
}