; Function Attrs: nounwind uwtable
define internal fastcc range(i32 -2147483648, 2147474176) i32 @x509_get_basic_constraints(ptr noundef nonnull %0, ptr noundef %1, ptr noundef nonnull initializes((0, 4)) %2, ptr noundef nonnull initializes((0, 4)) %3) unnamed_addr #0 {
  %5 = alloca i64, align 8
  call void @llvm.lifetime.start.p0(i64 8, ptr nonnull %5) #17
  store i32 0, ptr %2, align 4, !tbaa !31
  store i32 0, ptr %3, align 4, !tbaa !31
  %6 = call i32 @mbedtls_asn1_get_tag(ptr noundef nonnull %0, ptr noundef %1, ptr noundef nonnull %5, i32 noundef 48) #17
  %.not = icmp eq i32 %6, 0
  br i1 %.not, label %9, label %7

7:                                                ; preds = %4
  %8 = add nsw i32 %6, -9472
  br label %36

9:                                                ; preds = %4
  %10 = load ptr, ptr %0, align 8, !tbaa !24
  %11 = icmp eq ptr %10, %1
  br i1 %11, label %36, label %12

12:                                               ; preds = %9
  %13 = call i32 @mbedtls_asn1_get_bool(ptr noundef nonnull %0, ptr noundef %1, ptr noundef nonnull %2) #17
  switch i32 %13, label %16 [
    i32 0, label %22
    i32 -98, label %14
  ]

14:                                               ; preds = %12
  %15 = call i32 @mbedtls_asn1_get_int(ptr noundef nonnull %0, ptr noundef %1, ptr noundef nonnull %2) #17
  br label %16

16:                                               ; preds = %12, %14
  %.0 = phi i32 [ %15, %14 ], [ %13, %12 ]
  %.not35 = icmp eq i32 %.0, 0
  br i1 %.not35, label %19, label %17

17:                                               ; preds = %16
  %18 = add nsw i32 %.0, -9472
  br label %36

19:                                               ; preds = %16
  %20 = load i32, ptr %2, align 4, !tbaa !31
  %.not36 = icmp eq i32 %20, 0
  br i1 %.not36, label %22, label %21

21:                                               ; preds = %19
  store i32 1, ptr %2, align 4, !tbaa !31
  br label %22

22:                                               ; preds = %12, %19, %21
  %23 = load ptr, ptr %0, align 8, !tbaa !24
  %24 = icmp eq ptr %23, %1
  br i1 %24, label %36, label %25

25:                                               ; preds = %22
  %26 = call i32 @mbedtls_asn1_get_int(ptr noundef nonnull %0, ptr noundef %1, ptr noundef nonnull %3) #17
  %.not37 = icmp eq i32 %26, 0
  br i1 %.not37, label %29, label %27

27:                                               ; preds = %25
  %28 = add nsw i32 %26, -9472
  br label %36

29:                                               ; preds = %25
  %30 = load ptr, ptr %0, align 8, !tbaa !24
  %.not38 = icmp eq ptr %30, %1
  br i1 %.not38, label %31, label %36

31:                                               ; preds = %29
  %32 = load i32, ptr %3, align 4, !tbaa !31
  %33 = icmp eq i32 %32, 2147483647
  br i1 %33, label %36, label %34

34:                                               ; preds = %31
  %35 = add nsw i32 %32, 1
  store i32 %35, ptr %3, align 4, !tbaa !31
  br label %36

36:                                               ; preds = %31, %29, %22, %9, %34, %27, %17, %7
  %.028 = phi i32 [ %8, %7 ], [ %18, %17 ], [ %28, %27 ], [ 0, %34 ], [ 0, %9 ], [ 0, %22 ], [ -9574, %29 ], [ -9572, %31 ]
  call void @llvm.lifetime.end.p0(i64 8, ptr nonnull %5) #17
  ret i32 %.028
}